target datalayout = "e-m:e-p270:32:32-p271:32:32-p272:64:64-i64:64-i128:128-f80:128-n8:16:32:64-S128"
target triple = "x86_64-pc-linux-gnu"

%struct.anon.226 = type { i8 }
%struct.hb_vector_size_t = type { [8 x i64] }

@_ZL14hb_bitwise_and = internal constant %struct.anon.226 zeroinitializer, align 1

; Function Attrs: mustprogress nounwind uwtable
define internal noundef i64 @"_ZNK4$_12clIyEEDTanfp_fp0_ERKT_S4_"(ptr noundef nonnull align 1 dereferenceable(1) %0, ptr noundef nonnull align 8 dereferenceable(8) %1, ptr noundef nonnull align 8 dereferenceable(8) %2) #0 align 2 {
  %4 = alloca ptr, align 8
  %5 = alloca ptr, align 8
  %6 = alloca ptr, align 8
  store ptr %0, ptr %4, align 8, !tbaa !31
  store ptr %1, ptr %5, align 8, !tbaa !234
  store ptr %2, ptr %6, align 8, !tbaa !234
  %7 = load ptr, ptr %5, align 8, !tbaa !234
  %8 = load i64, ptr %7, align 8, !tbaa !232
  %9 = load ptr, ptr %6, align 8, !tbaa !234
  %10 = load i64, ptr %9, align 8, !tbaa !232
  %11 = and i64 %8, %10
  ret i64 %11
}

; Function Attrs: inlinehint mustprogress nounwind uwtable
define internal noundef i32 @_ZL12ARRAY_LENGTHIyLj8EEjRAT0__KT_(ptr noundef nonnull align 8 dereferenceable(64) %0) #2 {
  %2 = alloca ptr, align 8
  store ptr %0, ptr %2, align 8, !tbaa !234
  ret i32 8
}

; Function Attrs: mustprogress nounwind uwtable
define internal void @"_ZNK16hb_vector_size_tIyLj64EE7processI4$_12EES0_RKT_RKS0_"(ptr dead_on_unwind noalias writable sret(%struct.hb_vector_size_t) align 8 %0, ptr noundef nonnull align 8 dereferenceable(64) %1, ptr noundef nonnull align 1 dereferenceable(1) %2, ptr noundef nonnull align 8 dereferenceable(64) %3) #0 align 2 {
  %5 = alloca ptr, align 8
  %6 = alloca ptr, align 8
  %7 = alloca ptr, align 8
  %8 = alloca i32, align 4
  store ptr %1, ptr %5, align 8, !tbaa !241
  store ptr %2, ptr %6, align 8, !tbaa !31
  store ptr %3, ptr %7, align 8, !tbaa !241
  %9 = load ptr, ptr %5, align 8
  call void @llvm.lifetime.start.p0(i64 4, ptr %8) #14
  store i32 0, ptr %8, align 4, !tbaa !4
  br label %10

10:                                               ; preds = %32, %4
  %11 = load i32, ptr %8, align 4, !tbaa !4
  %12 = getelementptr inbounds nuw %struct.hb_vector_size_t, ptr %9, i32 0, i32 0
  %13 = call noundef i32 @_ZL12ARRAY_LENGTHIyLj8EEjRAT0__KT_(ptr noundef nonnull align 8 dereferenceable(64) %12)
  %14 = icmp ult i32 %11, %13
  br i1 %14, label %16, label %15

15:                                               ; preds = %10
  call void @llvm.lifetime.end.p0(i64 4, ptr %8) #14
  br label %35

16:                                               ; preds = %10
  %17 = load ptr, ptr %6, align 8, !tbaa !31
  %18 = getelementptr inbounds nuw %struct.hb_vector_size_t, ptr %9, i32 0, i32 0
  %19 = load i32, ptr %8, align 4, !tbaa !4
  %20 = zext i32 %19 to i64
  %21 = getelementptr inbounds nuw [8 x i64], ptr %18, i64 0, i64 %20
  %22 = load ptr, ptr %7, align 8, !tbaa !241
  %23 = getelementptr inbounds nuw %struct.hb_vector_size_t, ptr %22, i32 0, i32 0
  %24 = load i32, ptr %8, align 4, !tbaa !4
  %25 = zext i32 %24 to i64
  %26 = getelementptr inbounds nuw [8 x i64], ptr %23, i64 0, i64 %25
  %27 = call noundef i64 @"_ZNK4$_12clIyEEDTanfp_fp0_ERKT_S4_"(ptr noundef nonnull align 1 dereferenceable(1) %17, ptr noundef nonnull align 8 dereferenceable(8) %21, ptr noundef nonnull align 8 dereferenceable(8) %26)
  %28 = getelementptr inbounds nuw %struct.hb_vector_size_t, ptr %0, i32 0, i32 0
  %29 = load i32, ptr %8, align 4, !tbaa !4
  %30 = zext i32 %29 to i64
  %31 = getelementptr inbounds nuw [8 x i64], ptr %28, i64 0, i64 %30
  store i64 %27, ptr %31, align 8, !tbaa !232
  br label %32

32:                                               ; preds = %16
  %33 = load i32, ptr %8, align 4, !tbaa !4
  %34 = add i32 %33, 1
  store i32 %34, ptr %8, align 4, !tbaa !4
  br label %10, !llvm.loop !1037

35:                                               ; preds = %15
  ret void
}

; Function Attrs: mustprogress nounwind uwtable
define linkonce_odr dso_local void @_ZNK16hb_vector_size_tIyLj64EEanERKS0_(ptr dead_on_unwind noalias writable sret(%struct.hb_vector_size_t) align 8 %0, ptr noundef nonnull align 8 dereferenceable(64) %1, ptr noundef nonnull align 8 dereferenceable(64) %2) #0 comdat align 2 {
  %4 = alloca ptr, align 8
  %5 = alloca ptr, align 8
  store ptr %1, ptr %4, align 8, !tbaa !241
  store ptr %2, ptr %5, align 8, !tbaa !241
  %6 = load ptr, ptr %4, align 8
  %7 = load ptr, ptr %5, align 8, !tbaa !241
  call void @"_ZNK16hb_vector_size_tIyLj64EE7processI4$_12EES0_RKT_RKS0_"(ptr dead_on_unwind writable sret(%struct.hb_vector_size_t) align 8 %0, ptr noundef nonnull align 8 dereferenceable(64) %6, ptr noundef nonnull align 1 dereferenceable(1) @_ZL14hb_bitwise_and, ptr noundef nonnull align 8 dereferenceable(64) %7)
  ret void
}

; Function Attrs: mustprogress nounwind uwtable
define internal void @"_ZNK4$_12clI16hb_vector_size_tIyLj64EEEEDTanfp_fp0_ERKT_S6_"(ptr dead_on_unwind noalias writable sret(%struct.hb_vector_size_t) align 8 %0, ptr noundef nonnull align 1 dereferenceable(1) %1, ptr noundef nonnull align 8 dereferenceable(64) %2, ptr noundef nonnull align 8 dereferenceable(64) %3) #0 align 2 {
  %5 = alloca ptr, align 8
  %6 = alloca ptr, align 8
  %7 = alloca ptr, align 8
  store ptr %1, ptr %5, align 8, !tbaa !31
  store ptr %2, ptr %6, align 8, !tbaa !241
  store ptr %3, ptr %7, align 8, !tbaa !241
  %8 = load ptr, ptr %6, align 8, !tbaa !241
  %9 = load ptr, ptr %7, align 8, !tbaa !241
  call void @_ZNK16hb_vector_size_tIyLj64EEanERKS0_(ptr dead_on_unwind writable sret(%struct.hb_vector_size_t) align 8 %0, ptr noundef nonnull align 8 dereferenceable(64) %8, ptr noundef nonnull align 8 dereferenceable(64) %9)
  ret void
}

; Function Attrs: mustprogress nounwind uwtable
define internal void @"_ZN12hb_bit_set_t3op_I4$_12EE16hb_vector_size_tIyLj64EERKS3_S5_"(ptr dead_on_unwind noalias writable sret(%struct.hb_vector_size_t) align 8 %0, ptr noundef nonnull align 8 dereferenceable(64) %1, ptr noundef nonnull align 8 dereferenceable(64) %2) #0 align 2 {
  %4 = alloca ptr, align 8
  %5 = alloca ptr, align 8
  %6 = alloca %struct.anon.226, align 1
  store ptr %1, ptr %4, align 8, !tbaa !241
  store ptr %2, ptr %5, align 8, !tbaa !241
  call void @llvm.lifetime.start.p0(i64 1, ptr %6) #14
  %7 = load ptr, ptr %4, align 8, !tbaa !241
  %8 = load ptr, ptr %5, align 8, !tbaa !241
  call void @"_ZNK4$_12clI16hb_vector_size_tIyLj64EEEEDTanfp_fp0_ERKT_S6_"(ptr dead_on_unwind writable sret(%struct.hb_vector_size_t) align 8 %0, ptr noundef nonnull align 1 dereferenceable(1) %6, ptr noundef nonnull align 8 dereferenceable(64) %7, ptr noundef nonnull align 8 dereferenceable(64) %8)
  call void @llvm.lifetime.end.p0(i64 1, ptr %6) #14
  ret void
}