; Function Attrs: mustprogress nofree norecurse nosync nounwind memory(argmem: readwrite, inaccessiblemem: readwrite) uwtable
define internal void @"_ZN12hb_bit_set_t3op_I4$_12EE16hb_vector_size_tIyLj64EERKS3_S5_"(ptr dead_on_unwind noalias writable writeonly sret(%struct.hb_vector_size_t) align 8 captures(none) %0, ptr noundef nonnull readonly align 8 captures(none) dereferenceable(64) %1, ptr noundef nonnull readonly align 8 captures(none) dereferenceable(64) %2) #13 align 2 {
  tail call void @llvm.experimental.noalias.scope.decl(metadata !865)
  tail call void @llvm.experimental.noalias.scope.decl(metadata !868)
  tail call void @llvm.experimental.noalias.scope.decl(metadata !871)
  br label %4

4:                                                ; preds = %4, %3
  %indvars.iv.i.i.i = phi i64 [ 0, %3 ], [ %indvars.iv.next.i.i.i, %4 ]
  %5 = getelementptr inbounds nuw [8 x i64], ptr %1, i64 0, i64 %indvars.iv.i.i.i
  %6 = getelementptr inbounds nuw [8 x i64], ptr %2, i64 0, i64 %indvars.iv.i.i.i
  %.val.i.i.i = load i64, ptr %5, align 8, !tbaa !97, !noalias !874
  %.val7.i.i.i = load i64, ptr %6, align 8, !tbaa !97, !noalias !874
  %7 = and i64 %.val7.i.i.i, %.val.i.i.i
  %8 = getelementptr inbounds nuw [8 x i64], ptr %0, i64 0, i64 %indvars.iv.i.i.i
  store i64 %7, ptr %8, align 8, !tbaa !97, !alias.scope !874
  %indvars.iv.next.i.i.i = add nuw nsw i64 %indvars.iv.i.i.i, 1
  %exitcond.not.i.i.i = icmp eq i64 %indvars.iv.next.i.i.i, 8
  br i1 %exitcond.not.i.i.i, label %"_ZNK4$_12clI16hb_vector_size_tIyLj64EEEEDTanfp_fp0_ERKT_S6_.exit", label %4, !llvm.loop !875

"_ZNK4$_12clI16hb_vector_size_tIyLj64EEEEDTanfp_fp0_ERKT_S6_.exit": ; preds = %4
  ret void
}